ccopy_reg
_reconstructor
p0
(csklearn.svm.classes
SVC
p1
c__builtin__
object
p2
Ntp3
Rp4
(dp5
S'_impl'
p6
S'c_svc'
p7
sS'kernel'
p8
S'rbf'
p9
sS'C'
p10
F100.0
sS'verbose'
p11
I00
sS'probability'
p12
I00
sS'degree'
p13
I3
sS'epsilon'
p14
F0.0
sS'shrinking'
p15
I01
sS'max_iter'
p16
I-1
sS'random_state'
p17
NsS'tol'
p18
F0.001
sS'cache_size'
p19
I200
sS'coef0'
p20
F0.0
sS'nu'
p21
F0.0
sS'gamma'
p22
F0.001
sS'class_weight'
p23
Nsb.